; Function Attrs: nounwind uwtable
define ptr @l_Or_by__cases_x27___rarg___boxed(ptr noundef %0, ptr readnone captures(none) %1, ptr readnone captures(none) %2, ptr noundef %3, ptr noundef %4) #0 {
  %6 = ptrtoint ptr %0 to i64
  %7 = and i64 %6, 1
  %.not = icmp eq i64 %7, 0
  br i1 %.not, label %8, label %lean_dec.exit

8:                                                ; preds = %5
  %9 = load i32, ptr %0, align 4, !tbaa !4
  %10 = icmp sgt i32 %9, 1
  br i1 %10, label %11, label %13, !prof !9

11:                                               ; preds = %8
  %12 = add nsw i32 %9, -1
  store i32 %12, ptr %0, align 4, !tbaa !4
  br label %lean_dec.exit

13:                                               ; preds = %8
  %.not.i = icmp eq i32 %9, 0
  br i1 %.not.i, label %lean_dec.exit, label %14

14:                                               ; preds = %13
  tail call void @lean_dec_ref_cold(ptr noundef nonnull %0) #4
  br label %lean_dec.exit

lean_dec.exit:                                    ; preds = %14, %13, %11, %5
  %15 = and i64 %6, 510
  %16 = icmp eq i64 %15, 0
  br i1 %16, label %17, label %27

17:                                               ; preds = %lean_dec.exit
  %18 = ptrtoint ptr %4 to i64
  %19 = and i64 %18, 1
  %.not10.i = icmp eq i64 %19, 0
  br i1 %.not10.i, label %20, label %l_Or_by__cases_x27___rarg.exit

20:                                               ; preds = %17
  %21 = load i32, ptr %4, align 4, !tbaa !4
  %22 = icmp sgt i32 %21, 1
  br i1 %22, label %23, label %25, !prof !9

23:                                               ; preds = %20
  %24 = add nsw i32 %21, -1
  store i32 %24, ptr %4, align 4, !tbaa !4
  br label %l_Or_by__cases_x27___rarg.exit

25:                                               ; preds = %20
  %.not.i.i = icmp eq i32 %21, 0
  br i1 %.not.i.i, label %l_Or_by__cases_x27___rarg.exit, label %26

26:                                               ; preds = %25
  tail call void @lean_dec_ref_cold(ptr noundef nonnull %4) #4
  br label %l_Or_by__cases_x27___rarg.exit

27:                                               ; preds = %lean_dec.exit
  %28 = ptrtoint ptr %3 to i64
  %29 = and i64 %28, 1
  %.not.i7 = icmp eq i64 %29, 0
  br i1 %.not.i7, label %30, label %l_Or_by__cases_x27___rarg.exit

30:                                               ; preds = %27
  %31 = load i32, ptr %3, align 4, !tbaa !4
  %32 = icmp sgt i32 %31, 1
  br i1 %32, label %33, label %35, !prof !9

33:                                               ; preds = %30
  %34 = add nsw i32 %31, -1
  store i32 %34, ptr %3, align 4, !tbaa !4
  br label %l_Or_by__cases_x27___rarg.exit

35:                                               ; preds = %30
  %.not.i8.i = icmp eq i32 %31, 0
  br i1 %.not.i8.i, label %l_Or_by__cases_x27___rarg.exit, label %36

36:                                               ; preds = %35
  tail call void @lean_dec_ref_cold(ptr noundef nonnull %3) #4
  br label %l_Or_by__cases_x27___rarg.exit

l_Or_by__cases_x27___rarg.exit:                   ; preds = %17, %23, %25, %26, %27, %33, %35, %36
  %.sink.i = phi ptr [ %3, %26 ], [ %3, %25 ], [ %3, %23 ], [ %3, %17 ], [ %4, %36 ], [ %4, %35 ], [ %4, %33 ], [ %4, %27 ]
  %37 = tail call ptr @lean_apply_1(ptr noundef %.sink.i, ptr noundef nonnull inttoptr (i64 1 to ptr)) #4
  ret ptr %37
}